; Function Attrs: nounwind uwtable
define internal void @my_CommentHandler(ptr noundef captures(none) %0, ptr noundef %1) #0 {
  %3 = getelementptr i8, ptr %0, i64 72
  %.val = load ptr, ptr %3, align 8, !tbaa !36
  %4 = getelementptr i8, ptr %.val, i64 64
  %5 = load ptr, ptr %4, align 8, !tbaa !14
  %.not31 = icmp eq ptr %5, null
  br i1 %.not31, label %Py_DECREF.exit, label %6

6:                                                ; preds = %2
  %7 = tail call ptr @PyErr_Occurred() #8
  %.not16 = icmp eq ptr %7, null
  br i1 %.not16, label %8, label %Py_DECREF.exit

8:                                                ; preds = %6
  %9 = getelementptr inbounds nuw i8, ptr %0, i64 40
  %10 = load ptr, ptr %9, align 8, !tbaa !29
  %11 = icmp eq ptr %10, null
  br i1 %11, label %flush_character_buffer.exit.thread, label %12

12:                                               ; preds = %8
  %13 = getelementptr inbounds nuw i8, ptr %0, i64 52
  %14 = load i32, ptr %13, align 4, !tbaa !35
  %15 = icmp eq i32 %14, 0
  br i1 %15, label %flush_character_buffer.exit.thread, label %flush_character_buffer.exit

flush_character_buffer.exit:                      ; preds = %12
  %16 = tail call fastcc i32 @call_character_handler(ptr noundef nonnull %0, ptr noundef nonnull %10, i32 noundef %14)
  store i32 0, ptr %13, align 4, !tbaa !35
  %17 = icmp slt i32 %16, 0
  br i1 %17, label %Py_DECREF.exit, label %flush_character_buffer.exit.thread

flush_character_buffer.exit.thread:               ; preds = %8, %12, %flush_character_buffer.exit
  %18 = tail call ptr (ptr, ...) @Py_BuildValue(ptr noundef nonnull @.str.54, ptr noundef nonnull @conv_string_to_unicode, ptr noundef %1) #8
  %.not17 = icmp eq ptr %18, null
  br i1 %.not17, label %19, label %42

19:                                               ; preds = %flush_character_buffer.exit.thread
  %20 = load ptr, ptr @handler_info, align 16, !tbaa !40
  %.not15.i.i = icmp eq ptr %20, null
  br i1 %.not15.i.i, label %flag_error.exit, label %.lr.ph.i.i

.lr.ph.i.i:                                       ; preds = %19
  %21 = getelementptr inbounds nuw i8, ptr %0, i64 16
  br label %.lr.ph.split.us.i.i

.lr.ph.split.us.i.i:                              ; preds = %Py_DECREF.exit.us.i.i, %.lr.ph.i.i
  %22 = phi ptr [ %38, %Py_DECREF.exit.us.i.i ], [ @handler_info, %.lr.ph.i.i ]
  %23 = phi i64 [ %37, %Py_DECREF.exit.us.i.i ], [ 0, %.lr.ph.i.i ]
  %.016.us.i.i = phi i32 [ %36, %Py_DECREF.exit.us.i.i ], [ 0, %.lr.ph.i.i ]
  %24 = load ptr, ptr %3, align 8, !tbaa !36
  %25 = getelementptr ptr, ptr %24, i64 %23
  %26 = load ptr, ptr %25, align 8, !tbaa !14
  %.not14.us.i.i = icmp eq ptr %26, null
  br i1 %.not14.us.i.i, label %Py_DECREF.exit.us.i.i, label %27

27:                                               ; preds = %.lr.ph.split.us.i.i
  store ptr null, ptr %25, align 8, !tbaa !14
  %28 = load i32, ptr %26, align 8, !tbaa !13
  %.not.i.us.i.i = icmp sgt i32 %28, -1
  br i1 %.not.i.us.i.i, label %29, label %Py_DECREF.exit.us.i.i

29:                                               ; preds = %27
  %30 = add nsw i32 %28, -1
  store i32 %30, ptr %26, align 8, !tbaa !13
  %31 = icmp eq i32 %30, 0
  br i1 %31, label %32, label %Py_DECREF.exit.us.i.i

32:                                               ; preds = %29
  tail call void @_Py_Dealloc(ptr noundef nonnull %26) #8
  br label %Py_DECREF.exit.us.i.i

Py_DECREF.exit.us.i.i:                            ; preds = %32, %29, %27, %.lr.ph.split.us.i.i
  %33 = getelementptr inbounds nuw i8, ptr %22, i64 8
  %34 = load ptr, ptr %33, align 8, !tbaa !56
  %35 = load ptr, ptr %21, align 8, !tbaa !39
  tail call void %34(ptr noundef %35, ptr noundef null) #8
  %36 = add i32 %.016.us.i.i, 1
  %37 = sext i32 %36 to i64
  %38 = getelementptr [64 x %struct.HandlerInfo], ptr @handler_info, i64 0, i64 %37
  %39 = load ptr, ptr %38, align 16, !tbaa !40
  %.not.us.i.i = icmp eq ptr %39, null
  br i1 %.not.us.i.i, label %flag_error.exit, label %.lr.ph.split.us.i.i, !llvm.loop !45

flag_error.exit:                                  ; preds = %Py_DECREF.exit.us.i.i, %19
  %40 = getelementptr inbounds nuw i8, ptr %0, i64 16
  %41 = load ptr, ptr %40, align 8, !tbaa !39
  tail call void @PyExpat_XML_SetExternalEntityRefHandler(ptr noundef %41, ptr noundef nonnull @error_external_entity_ref_handler) #8
  br label %Py_DECREF.exit

42:                                               ; preds = %flush_character_buffer.exit.thread
  %43 = getelementptr inbounds nuw i8, ptr %0, i64 32
  store i32 1, ptr %43, align 8, !tbaa !60
  %44 = load ptr, ptr %3, align 8, !tbaa !36
  %45 = getelementptr i8, ptr %44, i64 64
  %46 = load ptr, ptr %45, align 8, !tbaa !14
  %47 = tail call ptr @PyObject_Call(ptr noundef %46, ptr noundef nonnull %18, ptr noundef null) #8
  %48 = icmp eq ptr %47, null
  br i1 %48, label %49, label %call_with_frame.exit

49:                                               ; preds = %42
  tail call void @_PyTraceback_Add(ptr noundef nonnull @.str.55, ptr noundef nonnull @.str.43, i32 noundef 641) #8
  %50 = getelementptr inbounds nuw i8, ptr %0, i64 16
  %51 = load ptr, ptr %50, align 8, !tbaa !39
  %52 = tail call i32 @PyExpat_XML_StopParser(ptr noundef %51, i8 noundef zeroext 0) #8
  br label %call_with_frame.exit

call_with_frame.exit:                             ; preds = %42, %49
  store i32 0, ptr %43, align 8, !tbaa !60
  %53 = load i32, ptr %18, align 8, !tbaa !13
  %.not.i18 = icmp sgt i32 %53, -1
  br i1 %.not.i18, label %54, label %Py_DECREF.exit19

54:                                               ; preds = %call_with_frame.exit
  %55 = add nsw i32 %53, -1
  store i32 %55, ptr %18, align 8, !tbaa !13
  %56 = icmp eq i32 %55, 0
  br i1 %56, label %57, label %Py_DECREF.exit19

57:                                               ; preds = %54
  tail call void @_Py_Dealloc(ptr noundef nonnull %18) #8
  br label %Py_DECREF.exit19

Py_DECREF.exit19:                                 ; preds = %call_with_frame.exit, %54, %57
  br i1 %48, label %58, label %81

58:                                               ; preds = %Py_DECREF.exit19
  %59 = load ptr, ptr @handler_info, align 16, !tbaa !40
  %.not15.i.i21 = icmp eq ptr %59, null
  br i1 %.not15.i.i21, label %flag_error.exit29, label %.lr.ph.i.i22

.lr.ph.i.i22:                                     ; preds = %58
  %60 = getelementptr inbounds nuw i8, ptr %0, i64 16
  br label %.lr.ph.split.us.i.i23

.lr.ph.split.us.i.i23:                            ; preds = %Py_DECREF.exit.us.i.i27, %.lr.ph.i.i22
  %61 = phi ptr [ %77, %Py_DECREF.exit.us.i.i27 ], [ @handler_info, %.lr.ph.i.i22 ]
  %62 = phi i64 [ %76, %Py_DECREF.exit.us.i.i27 ], [ 0, %.lr.ph.i.i22 ]
  %.016.us.i.i24 = phi i32 [ %75, %Py_DECREF.exit.us.i.i27 ], [ 0, %.lr.ph.i.i22 ]
  %63 = load ptr, ptr %3, align 8, !tbaa !36
  %64 = getelementptr ptr, ptr %63, i64 %62
  %65 = load ptr, ptr %64, align 8, !tbaa !14
  %.not14.us.i.i25 = icmp eq ptr %65, null
  br i1 %.not14.us.i.i25, label %Py_DECREF.exit.us.i.i27, label %66

66:                                               ; preds = %.lr.ph.split.us.i.i23
  store ptr null, ptr %64, align 8, !tbaa !14
  %67 = load i32, ptr %65, align 8, !tbaa !13
  %.not.i.us.i.i26 = icmp sgt i32 %67, -1
  br i1 %.not.i.us.i.i26, label %68, label %Py_DECREF.exit.us.i.i27

68:                                               ; preds = %66
  %69 = add nsw i32 %67, -1
  store i32 %69, ptr %65, align 8, !tbaa !13
  %70 = icmp eq i32 %69, 0
  br i1 %70, label %71, label %Py_DECREF.exit.us.i.i27

71:                                               ; preds = %68
  tail call void @_Py_Dealloc(ptr noundef nonnull %65) #8
  br label %Py_DECREF.exit.us.i.i27

Py_DECREF.exit.us.i.i27:                          ; preds = %71, %68, %66, %.lr.ph.split.us.i.i23
  %72 = getelementptr inbounds nuw i8, ptr %61, i64 8
  %73 = load ptr, ptr %72, align 8, !tbaa !56
  %74 = load ptr, ptr %60, align 8, !tbaa !39
  tail call void %73(ptr noundef %74, ptr noundef null) #8
  %75 = add i32 %.016.us.i.i24, 1
  %76 = sext i32 %75 to i64
  %77 = getelementptr [64 x %struct.HandlerInfo], ptr @handler_info, i64 0, i64 %76
  %78 = load ptr, ptr %77, align 16, !tbaa !40
  %.not.us.i.i28 = icmp eq ptr %78, null
  br i1 %.not.us.i.i28, label %flag_error.exit29, label %.lr.ph.split.us.i.i23, !llvm.loop !45

flag_error.exit29:                                ; preds = %Py_DECREF.exit.us.i.i27, %58
  %79 = getelementptr inbounds nuw i8, ptr %0, i64 16
  %80 = load ptr, ptr %79, align 8, !tbaa !39
  tail call void @PyExpat_XML_SetExternalEntityRefHandler(ptr noundef %80, ptr noundef nonnull @error_external_entity_ref_handler) #8
  br label %Py_DECREF.exit

81:                                               ; preds = %Py_DECREF.exit19
  %82 = load i32, ptr %47, align 8, !tbaa !13
  %.not.i = icmp sgt i32 %82, -1
  br i1 %.not.i, label %83, label %Py_DECREF.exit

83:                                               ; preds = %81
  %84 = add nsw i32 %82, -1
  store i32 %84, ptr %47, align 8, !tbaa !13
  %85 = icmp eq i32 %84, 0
  br i1 %85, label %86, label %Py_DECREF.exit

86:                                               ; preds = %83
  tail call void @_Py_Dealloc(ptr noundef nonnull %47) #8
  br label %Py_DECREF.exit

Py_DECREF.exit:                                   ; preds = %86, %83, %81, %2, %flush_character_buffer.exit, %6, %flag_error.exit29, %flag_error.exit
  ret void
}